; Function Attrs: mustprogress nounwind uwtable
define internal void @_ZN12_GLOBAL__N_128ZipfTest_ChiSquaredTest_TestD2Ev(ptr noundef nonnull align 16 dereferenceable(112) %this) unnamed_addr #3 align 2 personality ptr @__gxx_personality_v0 {
entry:
  %0 = getelementptr inbounds i8, ptr %this, i64 56
  %.val.i = load ptr, ptr %0, align 8
  %tobool.not.i.i.i.i.i = icmp eq ptr %.val.i, null
  br i1 %tobool.not.i.i.i.i.i, label %_ZN12_GLOBAL__N_18ZipfTestD2Ev.exit, label %if.then.i.i.i.i.i

if.then.i.i.i.i.i:                                ; preds = %entry
  tail call void @_ZdlPv(ptr noundef nonnull %.val.i) #29
  br label %_ZN12_GLOBAL__N_18ZipfTestD2Ev.exit

_ZN12_GLOBAL__N_18ZipfTestD2Ev.exit:              ; preds = %entry, %if.then.i.i.i.i.i
  tail call void @_ZN7testing4TestD2Ev(ptr noundef nonnull align 8 dereferenceable(16) %this) #28
  ret void
}